; Function Attrs: mustprogress uwtable
define hidden void @_Z14MyFilledCircleN2cv3MatENS_6Point_IiEE(ptr noundef %0, i64 %1) local_unnamed_addr #4 personality ptr @__gxx_personality_v0 {
  %3 = alloca %"class.cv::_InputOutputArray", align 8
  %4 = alloca %"class.cv::Scalar_", align 8
  %5 = getelementptr inbounds i8, ptr %3, i64 8
  %6 = getelementptr inbounds i8, ptr %3, i64 16
  store i64 0, ptr %6, align 8
  store i32 50397184, ptr %3, align 8
  store ptr %0, ptr %5, align 8
  %7 = getelementptr inbounds i8, ptr %4, i64 16
  call void @llvm.memset.p0.i64(ptr noundef nonnull align 8 dereferenceable(16) %4, i8 0, i64 16, i1 false)
  store <2 x double> <double 2.550000e+02, double 0.000000e+00>, ptr %7, align 8
  call void @_ZN2cv6circleERKNS_17_InputOutputArrayENS_6Point_IiEEiRKNS_7Scalar_IdEEiii(ptr noundef nonnull align 8 dereferenceable(24) %3, i64 %1, i32 noundef 12, ptr noundef nonnull align 8 dereferenceable(32) %4, i32 noundef -1, i32 noundef 8, i32 noundef 0)
  ret void
}